target datalayout = "e-m:e-p270:32:32-p271:32:32-p272:64:64-i64:64-i128:128-f80:128-n8:16:32:64-S128"
target triple = "x86_64-unknown-linux-gnu"

%"class.icu_75::number::impl::ScientificModifier" = type { %"class.icu_75::number::impl::Modifier", i32, ptr }
%"class.icu_75::number::impl::Modifier" = type { ptr }

@_ZTIN6icu_756number4impl8ModifierE = external constant ptr

; Function Attrs: mustprogress nounwind uwtable
define noundef zeroext i1 @_ZNK6icu_756number4impl18ScientificModifier22semanticallyEquivalentERKNS1_8ModifierE(ptr noundef nonnull align 8 dereferenceable(24) %this, ptr noundef nonnull align 8 dereferenceable(8) %other) unnamed_addr #0 align 2 {
entry:
  %retval = alloca i1, align 1
  %this.addr = alloca ptr, align 8
  %other.addr = alloca ptr, align 8
  %_other = alloca ptr, align 8
  store ptr %this, ptr %this.addr, align 8
  store ptr %other, ptr %other.addr, align 8
  %this1 = load ptr, ptr %this.addr, align 8
  %0 = load ptr, ptr %other.addr, align 8
  %1 = icmp eq ptr %0, null
  br i1 %1, label %dynamic_cast.null, label %dynamic_cast.notnull

dynamic_cast.notnull:                             ; preds = %entry
  %2 = call ptr @__dynamic_cast(ptr %0, ptr @_ZTIN6icu_756number4impl8ModifierE, ptr @_ZTIN6icu_756number4impl18ScientificModifierE, i64 0) #13
  br label %dynamic_cast.end

dynamic_cast.null:                                ; preds = %entry
  br label %dynamic_cast.end

dynamic_cast.end:                                 ; preds = %dynamic_cast.null, %dynamic_cast.notnull
  %3 = phi ptr [ %2, %dynamic_cast.notnull ], [ null, %dynamic_cast.null ]
  store ptr %3, ptr %_other, align 8
  %4 = load ptr, ptr %_other, align 8
  %cmp = icmp eq ptr %4, null
  br i1 %cmp, label %if.then, label %if.end

if.then:                                          ; preds = %dynamic_cast.end
  store i1 false, ptr %retval, align 1
  br label %return

if.end:                                           ; preds = %dynamic_cast.end
  %fExponent = getelementptr inbounds %"class.icu_75::number::impl::ScientificModifier", ptr %this1, i32 0, i32 1
  %5 = load i32, ptr %fExponent, align 8
  %6 = load ptr, ptr %_other, align 8
  %fExponent2 = getelementptr inbounds %"class.icu_75::number::impl::ScientificModifier", ptr %6, i32 0, i32 1
  %7 = load i32, ptr %fExponent2, align 8
  %cmp3 = icmp eq i32 %5, %7
  store i1 %cmp3, ptr %retval, align 1
  br label %return

return:                                           ; preds = %if.end, %if.then
  %8 = load i1, ptr %retval, align 1
  ret i1 %8
}