; Function Attrs: mustprogress nofree nounwind willreturn memory(read) uwtable
define noundef zeroext i1 @_ZNK6icu_756number4impl18ScientificModifier22semanticallyEquivalentERKNS1_8ModifierE(ptr nocapture noundef nonnull readonly align 8 dereferenceable(24) %this, ptr noundef nonnull readonly align 8 dereferenceable(8) %other) unnamed_addr #12 align 2 {
entry:
  %0 = tail call ptr @__dynamic_cast(ptr nonnull %other, ptr nonnull @_ZTIN6icu_756number4impl8ModifierE, ptr nonnull @_ZTIN6icu_756number4impl18ScientificModifierE, i64 0) #18
  %cmp = icmp eq ptr %0, null
  br i1 %cmp, label %return, label %if.end

if.end:                                           ; preds = %entry
  %fExponent = getelementptr inbounds i8, ptr %this, i64 8
  %1 = load i32, ptr %fExponent, align 8
  %fExponent2 = getelementptr inbounds i8, ptr %0, i64 8
  %2 = load i32, ptr %fExponent2, align 8
  %cmp3 = icmp eq i32 %1, %2
  br label %return

return:                                           ; preds = %entry, %if.end
  %retval.0 = phi i1 [ %cmp3, %if.end ], [ false, %entry ]
  ret i1 %retval.0
}